#include <math.h>
#include <stdio.h>
#include <stdlib.h>
#include <string.h>
#include <iostream>
using namespace std;

int main()
{
	int n,a[20001]={0},count=0;
	cin>>n;
	for(int i=1;i<=n;i++)
	{
		cin>>a[i];
	}
	for(int i=1;i<=n;i++)
	{
		for(int j=1;j<i;j++)
		{
			if(a[i]==a[j])
			{
				count++;
				a[i]=0;
			}
		}
	}
	cout<<a[1];
	for(int i=2;i<=n;i++)
	{
		if(a[i]!=0)
		{
			cout<<" "<<a[i];
		}
	}
	return 0;
}